; ModuleID = 'source-C-CXX/59/194.c'
source_filename = "source-C-CXX/59/194.c"
target datalayout = "e-m:e-p270:32:32-p271:32:32-p272:64:64-i64:64-f80:128-n8:16:32:64-S128"
target triple = "x86_64-pc-linux-gnu"

@.str = private unnamed_addr constant [3 x i8] c"%d\00", align 1
@.str.1 = private unnamed_addr constant [7 x i8] c"%d %d\0A\00", align 1
@str = private unnamed_addr constant [6 x i8] c"empty\00", align 1

; Function Attrs: nofree nounwind sspstrong uwtable
define dso_local void @main() local_unnamed_addr #0 {
  %1 = alloca i32, align 4
  %2 = alloca [10000 x i32], align 16
  %3 = bitcast i32* %1 to i8*
  call void @llvm.lifetime.start.p0i8(i64 4, i8* nonnull %3) #4
  %4 = bitcast [10000 x i32]* %2 to i8*
  call void @llvm.lifetime.start.p0i8(i64 40000, i8* nonnull %4) #4
  %5 = call i32 (i8*, ...) @__isoc99_scanf(i8* getelementptr inbounds ([3 x i8], [3 x i8]* @.str, i64 0, i64 0), i32* nonnull %1)
  %6 = load i32, i32* %1, align 4, !tbaa !5
  %7 = icmp slt i32 %6, 2
  br i1 %7, label %81, label %8

8:                                                ; preds = %0, %51
  %9 = phi i32 [ %55, %51 ], [ 0, %0 ]
  %10 = phi i32 [ %53, %51 ], [ 2, %0 ]
  %11 = phi i32 [ %52, %51 ], [ 0, %0 ]
  %12 = icmp ugt i32 %10, 2
  br i1 %12, label %13, label %47

13:                                               ; preds = %8
  %14 = and i32 %9, 1
  %15 = icmp eq i32 %9, 1
  br i1 %15, label %34, label %16

16:                                               ; preds = %13
  %17 = and i32 %9, -2
  br label %18

18:                                               ; preds = %18, %16
  %19 = phi i32 [ 0, %16 ], [ %30, %18 ]
  %20 = phi i32 [ 2, %16 ], [ %31, %18 ]
  %21 = phi i32 [ %17, %16 ], [ %32, %18 ]
  %22 = urem i32 %10, %20
  %23 = icmp eq i32 %22, 0
  %24 = zext i1 %23 to i32
  %25 = add nuw nsw i32 %19, %24
  %26 = or i32 %20, 1
  %27 = urem i32 %10, %26
  %28 = icmp eq i32 %27, 0
  %29 = zext i1 %28 to i32
  %30 = add nuw nsw i32 %25, %29
  %31 = add nuw nsw i32 %20, 2
  %32 = add i32 %21, -2
  %33 = icmp eq i32 %32, 0
  br i1 %33, label %34, label %18, !llvm.loop !9

34:                                               ; preds = %18, %13
  %35 = phi i32 [ undef, %13 ], [ %30, %18 ]
  %36 = phi i32 [ 0, %13 ], [ %30, %18 ]
  %37 = phi i32 [ 2, %13 ], [ %31, %18 ]
  %38 = icmp eq i32 %14, 0
  br i1 %38, label %44, label %39

39:                                               ; preds = %34
  %40 = urem i32 %10, %37
  %41 = icmp eq i32 %40, 0
  %42 = zext i1 %41 to i32
  %43 = add nuw nsw i32 %36, %42
  br label %44

44:                                               ; preds = %34, %39
  %45 = phi i32 [ %35, %34 ], [ %43, %39 ]
  %46 = icmp eq i32 %45, 0
  br i1 %46, label %47, label %51

47:                                               ; preds = %8, %44
  %48 = sext i32 %11 to i64
  %49 = getelementptr inbounds [10000 x i32], [10000 x i32]* %2, i64 0, i64 %48
  store i32 %10, i32* %49, align 4, !tbaa !5
  %50 = add nsw i32 %11, 1
  br label %51

51:                                               ; preds = %44, %47
  %52 = phi i32 [ %50, %47 ], [ %11, %44 ]
  %53 = add nuw i32 %10, 1
  %54 = icmp eq i32 %10, %6
  %55 = add i32 %9, 1
  br i1 %54, label %56, label %8, !llvm.loop !11

56:                                               ; preds = %51
  %57 = icmp eq i32 %52, 0
  br i1 %57, label %81, label %58

58:                                               ; preds = %56
  %59 = icmp sgt i32 %52, 0
  br i1 %59, label %60, label %78

60:                                               ; preds = %58
  %61 = zext i32 %52 to i64
  %62 = getelementptr inbounds [10000 x i32], [10000 x i32]* %2, i64 0, i64 0
  %63 = load i32, i32* %62, align 16, !tbaa !5
  br label %64

64:                                               ; preds = %60, %74
  %65 = phi i32 [ %63, %60 ], [ %69, %74 ]
  %66 = phi i64 [ 0, %60 ], [ %67, %74 ]
  %67 = add nuw nsw i64 %66, 1
  %68 = getelementptr inbounds [10000 x i32], [10000 x i32]* %2, i64 0, i64 %67
  %69 = load i32, i32* %68, align 4, !tbaa !5
  %70 = sub nsw i32 %69, %65
  %71 = icmp eq i32 %70, 2
  br i1 %71, label %72, label %74

72:                                               ; preds = %64
  %73 = call i32 (i8*, ...) @printf(i8* nonnull dereferenceable(1) getelementptr inbounds ([7 x i8], [7 x i8]* @.str.1, i64 0, i64 0), i32 %65, i32 %69)
  br label %74

74:                                               ; preds = %72, %64
  %75 = icmp eq i64 %67, %61
  br i1 %75, label %76, label %64, !llvm.loop !12

76:                                               ; preds = %74
  %77 = load i32, i32* %1, align 4
  br label %78

78:                                               ; preds = %76, %58
  %79 = phi i32 [ %77, %76 ], [ %6, %58 ]
  %80 = icmp slt i32 %79, 5
  br i1 %80, label %81, label %83

81:                                               ; preds = %0, %56, %78
  %82 = call i32 @puts(i8* nonnull dereferenceable(1) getelementptr inbounds ([6 x i8], [6 x i8]* @str, i64 0, i64 0))
  br label %83

83:                                               ; preds = %78, %81
  call void @llvm.lifetime.end.p0i8(i64 40000, i8* nonnull %4) #4
  call void @llvm.lifetime.end.p0i8(i64 4, i8* nonnull %3) #4
  ret void
}

; Function Attrs: argmemonly mustprogress nofree nosync nounwind willreturn
declare void @llvm.lifetime.start.p0i8(i64 immarg, i8* nocapture) #1

; Function Attrs: nofree nounwind
declare noundef i32 @__isoc99_scanf(i8* nocapture noundef readonly, ...) local_unnamed_addr #2

; Function Attrs: nofree nounwind
declare noundef i32 @printf(i8* nocapture noundef readonly, ...) local_unnamed_addr #2

; Function Attrs: argmemonly mustprogress nofree nosync nounwind willreturn
declare void @llvm.lifetime.end.p0i8(i64 immarg, i8* nocapture) #1

; Function Attrs: nofree nounwind
declare noundef i32 @puts(i8* nocapture noundef readonly) local_unnamed_addr #3


!llvm.module.flags = !{!0, !1, !2, !3}
!llvm.ident = !{!4}

!0 = !{i32 1, !"wchar_size", i32 4}
!1 = !{i32 7, !"PIC Level", i32 2}
!2 = !{i32 7, !"PIE Level", i32 2}
!3 = !{i32 7, !"uwtable", i32 1}
!4 = !{!"clang version 13.0.0"}
!5 = !{!6, !6, i64 0}
!6 = !{!"int", !7, i64 0}
!7 = !{!"omnipotent char", !8, i64 0}
!8 = !{!"Simple C/C++ TBAA"}
!9 = distinct !{!9, !10}
!10 = !{!"llvm.loop.mustprogress"}
!11 = distinct !{!11, !10}
!12 = distinct !{!12, !10}
